target datalayout = "e-m:e-p270:32:32-p271:32:32-p272:64:64-i64:64-i128:128-f80:128-n8:16:32:64-S128"
target triple = "x86_64-pc-linux-gnu"

%struct.slurm_select_ops_t = type { ptr, ptr, ptr, ptr, ptr, ptr, ptr, ptr, ptr, ptr, ptr, ptr, ptr, ptr, ptr, ptr, ptr, ptr, ptr, ptr, ptr, ptr, ptr, ptr, ptr, ptr, ptr, ptr, ptr, ptr, ptr, ptr }
%struct.dynamic_plugin_data = type { ptr, i32 }

@ops = internal global ptr null, align 8
@select_context_default = internal global i32 -1, align 4

; Function Attrs: nounwind uwtable
define dso_local i32 @select_g_select_jobinfo_get(ptr noundef %0, i32 noundef %1, ptr noundef %2) #0 {
  %4 = alloca ptr, align 8
  %5 = alloca i32, align 4
  %6 = alloca ptr, align 8
  %7 = alloca ptr, align 8
  %8 = alloca i32, align 4
  store ptr %0, ptr %4, align 8
  store i32 %1, ptr %5, align 4
  store ptr %2, ptr %6, align 8
  call void @llvm.lifetime.start.p0(i64 8, ptr %7) #7
  store ptr null, ptr %7, align 8
  call void @llvm.lifetime.start.p0(i64 4, ptr %8) #7
  %9 = load ptr, ptr %4, align 8
  %10 = icmp ne ptr %9, null
  br i1 %10, label %11, label %18

11:                                               ; preds = %3
  %12 = load ptr, ptr %4, align 8
  %13 = getelementptr inbounds nuw %struct.dynamic_plugin_data, ptr %12, i32 0, i32 0
  %14 = load ptr, ptr %13, align 8
  store ptr %14, ptr %7, align 8
  %15 = load ptr, ptr %4, align 8
  %16 = getelementptr inbounds nuw %struct.dynamic_plugin_data, ptr %15, i32 0, i32 1
  %17 = load i32, ptr %16, align 8
  store i32 %17, ptr %8, align 4
  br label %20

18:                                               ; preds = %3
  %19 = load i32, ptr @select_context_default, align 4
  store i32 %19, ptr %8, align 4
  br label %20

20:                                               ; preds = %18, %11
  %21 = load ptr, ptr @ops, align 8
  %22 = load i32, ptr %8, align 4
  %23 = zext i32 %22 to i64
  %24 = getelementptr inbounds nuw %struct.slurm_select_ops_t, ptr %21, i64 %23
  %25 = getelementptr inbounds nuw %struct.slurm_select_ops_t, ptr %24, i32 0, i32 26
  %26 = load ptr, ptr %25, align 8
  %27 = load ptr, ptr %7, align 8
  %28 = load i32, ptr %5, align 4
  %29 = load ptr, ptr %6, align 8
  %30 = call i32 %26(ptr noundef %27, i32 noundef %28, ptr noundef %29)
  call void @llvm.lifetime.end.p0(i64 4, ptr %8) #7
  call void @llvm.lifetime.end.p0(i64 8, ptr %7) #7
  ret i32 %30
}